; Function Attrs: nounwind sspstrong uwtable
define internal fastcc noundef i64 @append_extmod(i64 noundef returned %0, i64 noundef %1) unnamed_addr #0 {
  %3 = inttoptr i64 %1 to ptr
  %4 = load i64, ptr %3, align 8, !tbaa !56
  %5 = and i64 %4, 8192
  %.not.i = icmp eq i64 %5, 0
  br i1 %.not.i, label %9, label %6

6:                                                ; preds = %2
  %7 = lshr i64 %4, 15
  %8 = and i64 %7, 127
  br label %rb_array_len.exit

9:                                                ; preds = %2
  %10 = getelementptr inbounds nuw i8, ptr %3, i64 16
  %11 = load i64, ptr %10, align 8, !tbaa !17
  br label %rb_array_len.exit

rb_array_len.exit:                                ; preds = %6, %9
  %.0.i = phi i64 [ %8, %6 ], [ %11, %9 ]
  %12 = icmp sgt i64 %.0.i, 0
  br i1 %12, label %.lr.ph, label %._crit_edge

.lr.ph:                                           ; preds = %rb_array_len.exit
  %13 = getelementptr inbounds nuw i8, ptr %3, i64 16
  %14 = getelementptr inbounds nuw i8, ptr %3, i64 32
  br label %15

15:                                               ; preds = %.lr.ph, %RARRAY_AREF.exit
  %.07 = phi i64 [ %.0.i, %.lr.ph ], [ %16, %RARRAY_AREF.exit ]
  %16 = add nsw i64 %.07, -1
  %17 = load i64, ptr %3, align 8, !tbaa !56
  %18 = and i64 %17, 8192
  %.not.i.i = icmp eq i64 %18, 0
  br i1 %.not.i.i, label %19, label %RARRAY_AREF.exit

19:                                               ; preds = %15
  %20 = load ptr, ptr %14, align 8, !tbaa !17
  br label %RARRAY_AREF.exit

RARRAY_AREF.exit:                                 ; preds = %15, %19
  %.0.i.i = phi ptr [ %20, %19 ], [ %13, %15 ]
  %21 = getelementptr i64, ptr %.0.i.i, i64 %16
  %22 = load i64, ptr %21, align 8, !tbaa !7
  tail call void @rb_extend_object(i64 noundef %0, i64 noundef %22) #22
  %23 = icmp samesign ugt i64 %.07, 1
  br i1 %23, label %15, label %._crit_edge, !llvm.loop !175

._crit_edge:                                      ; preds = %RARRAY_AREF.exit, %rb_array_len.exit
  ret i64 %0
}